S'(mod (And 0.152918545501 (noise 0.821608997505 0.882728896651 ) ) r ) '
p1
.S'(lerp (sub (edgeEnhance a (sine 0.648554159007 ) ) 0.150639143967 ) r (blur y 0.21636831429 ) ) '
p1
.S'(sub (And (Xor 0.152918545501 (noise 0.821608997505 0.882728896651) )  0.906243374144)  r ) '
p1
.S'(sub (sub (Or a  0.906243374144)  r )  r ) '
p1
.S'(sub (asine (edgeEnhance a  (lerp (asine x )  y  (expt (cosine 0.811090798975)  0.0060377107943) ) ) )  r ) '
p1
.